target datalayout = "e-m:e-p270:32:32-p271:32:32-p272:64:64-i64:64-i128:128-f80:128-n8:16:32:64-S128"
target triple = "x86_64-pc-linux-gnu"

%"class.std::__1::strstreambuf" = type { %"class.std::__1::basic_streambuf", i32, i64, ptr, ptr }
%"class.std::__1::basic_streambuf" = type { ptr, %"class.std::__1::locale", ptr, ptr, ptr, ptr, ptr, ptr }
%"class.std::__1::locale" = type { ptr }
%"class.std::__1::istrstream" = type { %"class.std::__1::basic_istream.base", %"class.std::__1::strstreambuf", %"class.std::__1::basic_ios.base" }
%"class.std::__1::basic_istream.base" = type { ptr, i64 }
%"class.std::__1::basic_ios.base" = type <{ %"class.std::__1::ios_base", ptr, %"struct.std::__1::_SentinelValueFill" }>
%"class.std::__1::ios_base" = type { ptr, i32, i64, i64, i32, i32, ptr, ptr, ptr, ptr, i64, i64, ptr, i64, i64, ptr, i64, i64 }
%"struct.std::__1::_SentinelValueFill" = type { i32 }

@_ZNSt3__112strstreambufD1Ev = dso_local unnamed_addr alias void (ptr), ptr @_ZNSt3__112strstreambufD2Ev

; Function Attrs: mustprogress nounwind uwtable
define dso_local void @_ZNSt3__110istrstreamD2Ev(ptr noundef nonnull align 8 dereferenceable(112) %0, ptr noundef %1) unnamed_addr #1 align 2 {
  %3 = alloca ptr, align 8
  %4 = alloca ptr, align 8
  store ptr %0, ptr %3, align 8, !tbaa !56
  store ptr %1, ptr %4, align 8, !tbaa !38
  %5 = load ptr, ptr %3, align 8
  %6 = load ptr, ptr %4, align 8
  %7 = load ptr, ptr %6, align 8
  store ptr %7, ptr %5, align 8, !tbaa !11
  %8 = getelementptr inbounds ptr, ptr %6, i64 3
  %9 = load ptr, ptr %8, align 8
  %10 = load ptr, ptr %5, align 8, !tbaa !11
  %11 = getelementptr i8, ptr %10, i64 -24
  %12 = load i64, ptr %11, align 8
  %13 = getelementptr inbounds i8, ptr %5, i64 %12
  store ptr %9, ptr %13, align 8, !tbaa !11
  %14 = getelementptr inbounds nuw %"class.std::__1::istrstream", ptr %5, i32 0, i32 1
  call void @_ZNSt3__112strstreambufD1Ev(ptr noundef nonnull align 8 dereferenceable(96) %14) #14
  %15 = getelementptr inbounds ptr, ptr %6, i64 1
  call void @_ZNSt3__113basic_istreamIcNS_11char_traitsIcEEED2Ev(ptr noundef nonnull align 8 dereferenceable(16) %5, ptr noundef %15) #14
  ret void
}